target datalayout = "e-m:e-p270:32:32-p271:32:32-p272:64:64-i64:64-i128:128-f80:128-n8:16:32:64-S128"
target triple = "x86_64-pc-linux-gnu"

%struct.darktable_t = type { %struct.dt_codepath_t, i32, i32, ptr, ptr, ptr, ptr, ptr, ptr, ptr, ptr, ptr, ptr, ptr, ptr, ptr, ptr, ptr, ptr, ptr, ptr, ptr, ptr, ptr, ptr, ptr, ptr, ptr, ptr, ptr, [64 x %struct.dt_pthread_mutex_t], %struct.dt_pthread_mutex_t, %struct.dt_pthread_mutex_t, %struct.dt_pthread_mutex_t, %struct.dt_pthread_mutex_t, %struct.dt_pthread_mutex_t, ptr, ptr, ptr, ptr, ptr, ptr, ptr, ptr, ptr, ptr, ptr, ptr, ptr, %struct.dt_lua_state_t, ptr, double, ptr, i32, [47 x i32], i32, i32, ptr, ptr, %struct.dt_sys_resources_t, %struct.dt_backthumb_t, %struct.dt_gimp_t }
%struct.dt_codepath_t = type { i8, [3 x i8] }
%struct.dt_pthread_mutex_t = type { %union.pthread_mutex_t }
%union.pthread_mutex_t = type { %struct.__pthread_mutex_s }
%struct.__pthread_mutex_s = type { i32, i32, i32, i32, i32, i16, i16, %struct.__pthread_internal_list }
%struct.__pthread_internal_list = type { ptr, ptr }
%struct.dt_lua_state_t = type { i32 }
%struct.dt_sys_resources_t = type { i64, i64, ptr, ptr, i32 }
%struct.dt_backthumb_t = type { double, double, i32, i32, i32, i32 }
%struct.dt_gimp_t = type { i32, ptr, ptr, i32, i32 }
%struct._GdkRGBA = type { double, double, double, double }
%struct._DtBauhausWidget = type { %struct._GtkDrawingArea, i32, ptr, ptr, i32, [256 x i8], i32, ptr, i32, ptr, ptr, i32, ptr, i32, i32, i32, %struct._GtkBorder, %struct._GtkBorder, i32, %union.dt_bauhaus_data_t }
%struct._GtkDrawingArea = type { %struct._GtkWidget, ptr }
%struct._GtkWidget = type { %struct._GObject, ptr }
%struct._GObject = type { %struct._GTypeInstance, i32, ptr }
%struct._GTypeInstance = type { ptr }
%struct._GtkBorder = type { i16, i16, i16, i16 }
%union.dt_bauhaus_data_t = type { %struct.dt_bauhaus_slider_data_t }
%struct.dt_bauhaus_slider_data_t = type { float, float, float, float, float, float, float, float, float, float, i32, ptr, i32, ptr, i8, ptr, float, float, i8, i32, ptr }
%struct.dt_bauhaus_t = type { ptr, %struct.dt_bauhaus_popup_t, ptr, float, float, i32, i32, float, [180 x i8], i32, i32, [2 x i32], i32, ptr, ptr, float, float, float, float, float, ptr, ptr, i32, i32, i32, %struct._GdkRGBA, %struct._GdkRGBA, %struct._GdkRGBA, %struct._GdkRGBA, %struct._GdkRGBA, %struct._GdkRGBA, %struct._GdkRGBA, %struct._GdkRGBA, %struct._GdkRGBA, %struct._GdkRGBA, %struct._GdkRGBA, %struct._GdkRGBA, %struct._GdkRGBA, %struct._GdkRGBA, %struct._GdkRGBA, [3 x %struct._GdkRGBA], [5 x %struct._GdkRGBA] }
%struct.dt_bauhaus_popup_t = type { ptr, ptr, %struct._GtkBorder, %struct._cairo_rectangle_int, i32, i32, i32 }
%struct._cairo_rectangle_int = type { i32, i32, i32, i32 }

@darktable = external global %struct.darktable_t, align 8

; Function Attrs: nounwind uwtable
define internal void @_margins_retrieve(ptr noundef %0) #0 {
  %2 = alloca ptr, align 8
  %3 = alloca ptr, align 8
  %4 = alloca i32, align 4
  store ptr %0, ptr %2, align 8, !tbaa !17
  call void @llvm.lifetime.start.p0(i64 8, ptr %3) #13
  %5 = load ptr, ptr %2, align 8, !tbaa !17
  %6 = call i64 @gtk_widget_get_type() #14
  %7 = call ptr @g_type_check_instance_cast(ptr noundef %5, i64 noundef %6)
  %8 = call ptr @gtk_widget_get_style_context(ptr noundef %7)
  store ptr %8, ptr %3, align 8, !tbaa !74
  call void @llvm.lifetime.start.p0(i64 4, ptr %4) #13
  %9 = load ptr, ptr %2, align 8, !tbaa !17
  %10 = call i64 @gtk_widget_get_type() #14
  %11 = call ptr @g_type_check_instance_cast(ptr noundef %9, i64 noundef %10)
  %12 = call i32 @gtk_widget_get_state_flags(ptr noundef %11)
  store i32 %12, ptr %4, align 4, !tbaa !13
  %13 = load ptr, ptr %3, align 8, !tbaa !74
  %14 = load i32, ptr %4, align 4, !tbaa !13
  %15 = load ptr, ptr %2, align 8, !tbaa !17
  %16 = getelementptr inbounds nuw %struct._DtBauhausWidget, ptr %15, i32 0, i32 16
  call void @gtk_style_context_get_margin(ptr noundef %13, i32 noundef %14, ptr noundef %16)
  %17 = load ptr, ptr %3, align 8, !tbaa !74
  %18 = load i32, ptr %4, align 4, !tbaa !13
  %19 = load ptr, ptr %2, align 8, !tbaa !17
  %20 = getelementptr inbounds nuw %struct._DtBauhausWidget, ptr %19, i32 0, i32 17
  call void @gtk_style_context_get_padding(ptr noundef %17, i32 noundef %18, ptr noundef %20)
  call void @llvm.lifetime.end.p0(i64 4, ptr %4) #13
  call void @llvm.lifetime.end.p0(i64 8, ptr %3) #13
  ret void
}

; Function Attrs: nounwind uwtable
define internal void @_widget_get_preferred_height(ptr noundef %0, ptr noundef %1, ptr noundef %2) #0 {
  %4 = alloca ptr, align 8
  %5 = alloca ptr, align 8
  %6 = alloca ptr, align 8
  %7 = alloca ptr, align 8
  store ptr %0, ptr %4, align 8, !tbaa !15
  store ptr %1, ptr %5, align 8, !tbaa !291
  store ptr %2, ptr %6, align 8, !tbaa !291
  call void @llvm.lifetime.start.p0(i64 8, ptr %7) #13
  %8 = load ptr, ptr %4, align 8, !tbaa !15
  store ptr %8, ptr %7, align 8, !tbaa !17
  %9 = load ptr, ptr %7, align 8, !tbaa !17
  call void @_margins_retrieve(ptr noundef %9)
  %10 = load ptr, ptr %7, align 8, !tbaa !17
  %11 = getelementptr inbounds nuw %struct._DtBauhausWidget, ptr %10, i32 0, i32 16
  %12 = getelementptr inbounds nuw %struct._GtkBorder, ptr %11, i32 0, i32 2
  %13 = load i16, ptr %12, align 4, !tbaa !313
  %14 = sext i16 %13 to i32
  %15 = load ptr, ptr %7, align 8, !tbaa !17
  %16 = getelementptr inbounds nuw %struct._DtBauhausWidget, ptr %15, i32 0, i32 16
  %17 = getelementptr inbounds nuw %struct._GtkBorder, ptr %16, i32 0, i32 3
  %18 = load i16, ptr %17, align 2, !tbaa !314
  %19 = sext i16 %18 to i32
  %20 = add nsw i32 %14, %19
  %21 = load ptr, ptr %7, align 8, !tbaa !17
  %22 = getelementptr inbounds nuw %struct._DtBauhausWidget, ptr %21, i32 0, i32 17
  %23 = getelementptr inbounds nuw %struct._GtkBorder, ptr %22, i32 0, i32 2
  %24 = load i16, ptr %23, align 4, !tbaa !317
  %25 = sext i16 %24 to i32
  %26 = add nsw i32 %20, %25
  %27 = load ptr, ptr %7, align 8, !tbaa !17
  %28 = getelementptr inbounds nuw %struct._DtBauhausWidget, ptr %27, i32 0, i32 17
  %29 = getelementptr inbounds nuw %struct._GtkBorder, ptr %28, i32 0, i32 3
  %30 = load i16, ptr %29, align 2, !tbaa !318
  %31 = sext i16 %30 to i32
  %32 = add nsw i32 %26, %31
  %33 = sitofp i32 %32 to float
  %34 = load ptr, ptr getelementptr inbounds nuw (%struct.darktable_t, ptr @darktable, i32 0, i32 17), align 8, !tbaa !78
  %35 = getelementptr inbounds nuw %struct.dt_bauhaus_t, ptr %34, i32 0, i32 15
  %36 = load float, ptr %35, align 8, !tbaa !96
  %37 = fadd reassoc nsz arcp contract afn float %33, %36
  %38 = fptosi float %37 to i32
  %39 = load ptr, ptr %5, align 8, !tbaa !291
  store i32 %38, ptr %39, align 4, !tbaa !13
  %40 = load ptr, ptr %7, align 8, !tbaa !17
  %41 = getelementptr inbounds nuw %struct._DtBauhausWidget, ptr %40, i32 0, i32 1
  %42 = load i32, ptr %41, align 8, !tbaa !139
  %43 = icmp eq i32 %42, 1
  br i1 %43, label %44, label %61

44:                                               ; preds = %3
  %45 = load ptr, ptr getelementptr inbounds nuw (%struct.darktable_t, ptr @darktable, i32 0, i32 17), align 8, !tbaa !78
  %46 = getelementptr inbounds nuw %struct.dt_bauhaus_t, ptr %45, i32 0, i32 17
  %47 = load float, ptr %46, align 8, !tbaa !98
  %48 = fpext reassoc nsz arcp contract afn float %47 to double
  %49 = fadd reassoc nsz arcp contract afn double 4.000000e+00, %48
  %50 = load ptr, ptr getelementptr inbounds nuw (%struct.darktable_t, ptr @darktable, i32 0, i32 17), align 8, !tbaa !78
  %51 = getelementptr inbounds nuw %struct.dt_bauhaus_t, ptr %50, i32 0, i32 18
  %52 = load float, ptr %51, align 4, !tbaa !99
  %53 = fmul reassoc nsz arcp contract afn float 1.500000e+00, %52
  %54 = fpext reassoc nsz arcp contract afn float %53 to double
  %55 = fadd reassoc nsz arcp contract afn double %49, %54
  %56 = load ptr, ptr %5, align 8, !tbaa !291
  %57 = load i32, ptr %56, align 4, !tbaa !13
  %58 = sitofp i32 %57 to double
  %59 = fadd reassoc nsz arcp contract afn double %58, %55
  %60 = fptosi double %59 to i32
  store i32 %60, ptr %56, align 4, !tbaa !13
  br label %61

61:                                               ; preds = %44, %3
  %62 = load ptr, ptr %5, align 8, !tbaa !291
  %63 = load i32, ptr %62, align 4, !tbaa !13
  %64 = load ptr, ptr %6, align 8, !tbaa !291
  store i32 %63, ptr %64, align 4, !tbaa !13
  call void @llvm.lifetime.end.p0(i64 8, ptr %7) #13
  ret void
}