; Function Attrs: nounwind uwtable
define internal void @_widget_get_preferred_height(ptr noundef %0, ptr noundef writeonly captures(none) initializes((0, 4)) %1, ptr noundef writeonly captures(none) initializes((0, 4)) %2) #0 {
  %4 = tail call i64 @gtk_widget_get_type() #20
  %5 = tail call ptr @g_type_check_instance_cast(ptr noundef %0, i64 noundef %4) #19
  %6 = tail call ptr @gtk_widget_get_style_context(ptr noundef %5) #19
  %7 = tail call ptr @g_type_check_instance_cast(ptr noundef %0, i64 noundef %4) #19
  %8 = tail call i32 @gtk_widget_get_state_flags(ptr noundef %7) #19
  %9 = getelementptr inbounds nuw i8, ptr %0, i64 388
  tail call void @gtk_style_context_get_margin(ptr noundef %6, i32 noundef %8, ptr noundef nonnull %9) #19
  %10 = getelementptr inbounds nuw i8, ptr %0, i64 396
  tail call void @gtk_style_context_get_padding(ptr noundef %6, i32 noundef %8, ptr noundef nonnull %10) #19
  %11 = getelementptr inbounds nuw i8, ptr %0, i64 392
  %12 = load i16, ptr %11, align 4, !tbaa !257
  %13 = sext i16 %12 to i32
  %14 = getelementptr inbounds nuw i8, ptr %0, i64 394
  %15 = load i16, ptr %14, align 2, !tbaa !258
  %16 = sext i16 %15 to i32
  %17 = add nsw i32 %16, %13
  %18 = getelementptr inbounds nuw i8, ptr %0, i64 400
  %19 = load i16, ptr %18, align 4, !tbaa !261
  %20 = sext i16 %19 to i32
  %21 = add nsw i32 %17, %20
  %22 = getelementptr inbounds nuw i8, ptr %0, i64 402
  %23 = load i16, ptr %22, align 2, !tbaa !262
  %24 = sext i16 %23 to i32
  %25 = add nsw i32 %21, %24
  %26 = sitofp i32 %25 to float
  %27 = load ptr, ptr getelementptr inbounds nuw (i8, ptr @darktable, i64 128), align 8, !tbaa !67
  %28 = getelementptr inbounds nuw i8, ptr %27, i64 312
  %29 = load float, ptr %28, align 8, !tbaa !80
  %30 = fadd reassoc nsz arcp contract afn float %29, %26
  %31 = fptosi float %30 to i32
  store i32 %31, ptr %1, align 4, !tbaa !79
  %32 = getelementptr inbounds nuw i8, ptr %0, i64 40
  %33 = load i32, ptr %32, align 8, !tbaa !105
  %34 = icmp eq i32 %33, 1
  br i1 %34, label %35, label %48

35:                                               ; preds = %3
  %36 = getelementptr inbounds nuw i8, ptr %27, i64 320
  %37 = load float, ptr %36, align 8, !tbaa !82
  %38 = fpext reassoc nsz arcp contract afn float %37 to double
  %39 = getelementptr inbounds nuw i8, ptr %27, i64 324
  %40 = load float, ptr %39, align 4, !tbaa !83
  %41 = fmul reassoc nsz arcp contract afn float %40, 1.500000e+00
  %42 = fpext reassoc nsz arcp contract afn float %41 to double
  %43 = sitofp i32 %31 to double
  %44 = fadd reassoc nsz arcp contract afn double %43, 4.000000e+00
  %45 = fadd reassoc nsz arcp contract afn double %44, %38
  %46 = fadd reassoc nsz arcp contract afn double %45, %42
  %47 = fptosi double %46 to i32
  store i32 %47, ptr %1, align 4, !tbaa !79
  br label %48

48:                                               ; preds = %35, %3
  %49 = phi i32 [ %47, %35 ], [ %31, %3 ]
  store i32 %49, ptr %2, align 4, !tbaa !79
  ret void
}